; Function Attrs: nounwind uwtable
define range(i32 0, 2) i32 @X509V3_add_value_int(ptr noundef %0, ptr noundef %1, ptr noundef captures(none) %2) local_unnamed_addr #0 {
  %.not = icmp eq ptr %1, null
  br i1 %.not, label %12, label %4

4:                                                ; preds = %3
  %5 = tail call ptr @ASN1_INTEGER_to_BN(ptr noundef nonnull %1, ptr noundef null) #12
  %6 = icmp eq ptr %5, null
  br i1 %6, label %i2s_ASN1_INTEGER.exit.thread, label %7

7:                                                ; preds = %4
  %8 = tail call fastcc ptr @bignum_to_string(ptr noundef %5)
  %9 = icmp eq ptr %8, null
  br i1 %9, label %i2s_ASN1_INTEGER.exit.thread, label %X509V3_add_value.exit

i2s_ASN1_INTEGER.exit.thread:                     ; preds = %4, %7
  %.sink10.i = phi i32 [ 189, %4 ], [ 191, %7 ]
  %.sink.i = phi i32 [ 524301, %4 ], [ 524322, %7 ]
  tail call void @ERR_new() #12
  tail call void @ERR_set_debug(ptr noundef nonnull @.str, i32 noundef %.sink10.i, ptr noundef nonnull @__func__.i2s_ASN1_INTEGER) #12
  tail call void (i32, i32, ptr, ...) @ERR_set_error(i32 noundef 34, i32 noundef %.sink.i, ptr noundef null) #12
  tail call void @BN_free(ptr noundef %5) #12
  br label %12

X509V3_add_value.exit:                            ; preds = %7
  tail call void @BN_free(ptr noundef nonnull %5) #12
  %10 = tail call i64 @strlen(ptr noundef nonnull dereferenceable(1) %8) #11
  %11 = tail call fastcc i32 @x509v3_add_len_value(ptr noundef %0, ptr noundef nonnull %8, i64 noundef %10, ptr noundef %2)
  tail call void @CRYPTO_free(ptr noundef nonnull %8, ptr noundef nonnull @.str, i32 noundef 262) #12
  br label %12

12:                                               ; preds = %i2s_ASN1_INTEGER.exit.thread, %3, %X509V3_add_value.exit
  %.0 = phi i32 [ %11, %X509V3_add_value.exit ], [ 1, %3 ], [ 0, %i2s_ASN1_INTEGER.exit.thread ]
  ret i32 %.0
}